; Function Attrs: nounwind uwtable
define hidden i32 @luaK_jump(ptr noundef captures(none) %0) local_unnamed_addr #0 {
  %2 = getelementptr inbounds nuw i8, ptr %0, i64 56
  %3 = load i32, ptr %2, align 8, !tbaa !36
  store i32 -1, ptr %2, align 8, !tbaa !36
  %4 = getelementptr inbounds nuw i8, ptr %0, i64 24
  %5 = load ptr, ptr %4, align 8, !tbaa !30
  %6 = getelementptr inbounds nuw i8, ptr %5, i64 8
  %7 = load i32, ptr %6, align 8, !tbaa !31
  %8 = tail call fastcc i32 @luaK_code(ptr noundef %0, i32 noundef 2147450902, i32 noundef %7)
  %9 = icmp eq i32 %3, -1
  br i1 %9, label %luaK_concat.exit, label %10

10:                                               ; preds = %1
  %11 = icmp eq i32 %8, -1
  br i1 %11, label %luaK_concat.exit, label %.preheader.i

.preheader.i:                                     ; preds = %10
  %.val.i = load ptr, ptr %0, align 8, !tbaa !19
  %12 = getelementptr i8, ptr %.val.i, i64 24
  %.val.val.i = load ptr, ptr %12, align 8, !tbaa !20
  br label %13

13:                                               ; preds = %13, %.preheader.i
  %.0.i = phi i32 [ %21, %13 ], [ %8, %.preheader.i ]
  %14 = sext i32 %.0.i to i64
  %15 = getelementptr inbounds i32, ptr %.val.val.i, i64 %14
  %16 = load i32, ptr %15, align 4, !tbaa !29
  %17 = lshr i32 %16, 14
  %18 = add nsw i32 %17, -131071
  %19 = icmp eq i32 %18, -1
  %20 = add nuw nsw i32 %.0.i, 1
  %21 = add nsw i32 %20, %18
  %.not13.i = icmp eq i32 %21, -1
  %.not.i = select i1 %19, i1 true, i1 %.not13.i
  br i1 %.not.i, label %22, label %13, !llvm.loop !37

22:                                               ; preds = %13
  %23 = getelementptr inbounds i32, ptr %.val.val.i, i64 %14
  %.neg.i.i = xor i32 %.0.i, -1
  %24 = add i32 %3, %.neg.i.i
  %25 = tail call i32 @llvm.abs.i32(i32 %24, i1 true)
  %26 = icmp samesign ugt i32 %25, 131071
  br i1 %26, label %27, label %fixjump.exit.i

27:                                               ; preds = %22
  %28 = load ptr, ptr %4, align 8, !tbaa !30
  tail call void @luaX_syntaxerror(ptr noundef %28, ptr noundef nonnull @.str.1) #8
  %.pre.i = load i32, ptr %23, align 4, !tbaa !29
  br label %fixjump.exit.i

fixjump.exit.i:                                   ; preds = %27, %22
  %29 = phi i32 [ %16, %22 ], [ %.pre.i, %27 ]
  %30 = and i32 %29, 16383
  %31 = shl i32 %24, 14
  %32 = add i32 %31, 2147467264
  %33 = or disjoint i32 %30, %32
  store i32 %33, ptr %23, align 4, !tbaa !29
  br label %luaK_concat.exit

luaK_concat.exit:                                 ; preds = %10, %1, %fixjump.exit.i
  %.0 = phi i32 [ %8, %1 ], [ %8, %fixjump.exit.i ], [ %3, %10 ]
  ret i32 %.0
}